(dp1
S'depts'
p2
(dp3
V45
p4
(dp5
S'verba_name'
p6
VTEPPER
p7
sS'verba_id'
p8
V8814
p9
sS'courses'
p10
(dp11
V45840
p12
(lp13
(dp14
Vinstructor
p15
VCHOW
p16
sVid
p17
V7428839
p18
sVname
p19
NsasV45760
p20
(lp21
(dp22
Vinstructor
p23
NsVid
p24
V7428840
p25
sVname
p26
NsasV45944
p27
(lp28
(dp29
Vinstructor
p30
NsVid
p31
V7430979
p32
sVname
p33
VE
sasV45701
p34
(lp35
(dp36
Vinstructor
p37
NsVid
p38
V7428838
p39
sVname
p40
NsasV45862
p41
(lp42
(dp43
Vinstructor
p44
NsVid
p45
V7429230
p46
sVname
p47
VA,E
p48
sasV45921
p49
(lp50
(dp51
Vinstructor
p52
VDAMMON
p53
sVid
p54
V7428841
p55
sVname
p56
NsasssV36
p57
(dp58
g6
VSTATISTICS
p59
sg8
V8810
p60
sg10
(dp61
V36462
p62
(lp63
(dp64
Vinstructor
p65
NsVid
p66
V7429170
p67
sVname
p68
NsasV36662
p69
g63
sV36402
p70
(lp71
(dp72
Vinstructor
p73
NsVid
p74
V7429001
p75
sVname
p76
NsasV36247
p77
(lp78
(dp79
Vinstructor
p80
VROJAS
p81
sVid
p82
V7429002
p83
sVname
p84
NsasV36315
p85
(lp86
(dp87
Vinstructor
p88
NsVid
p89
V7429003
p90
sVname
p91
NsasV36610
p92
(lp93
(dp94
Vinstructor
p95
NsVid
p96
V7429000
p97
sVname
p98
NsasV36428
p99
(lp100
(dp101
Vinstructor
p102
NsVid
p103
V7429193
p104
sVname
p105
NsasV36728
p106
g100
sV36220
p107
g78
sV36410
p108
g93
sV36226
p109
(lp110
(dp111
Vinstructor
p112
NsVid
p113
V7429004
p114
sVname
p115
NsasssV60
p116
(dp117
g6
VART
p118
sg8
V8822
p119
sg10
(dp120
V60491
p121
(lp122
(dp123
Vinstructor
p124
VBURGESS
p125
sVid
p126
V7431085
p127
sVname
p128
NsasV60452
p129
(lp130
(dp131
Vinstructor
p132
VMERRELL
p133
sVid
p134
V7429009
p135
sVname
p136
NsasV60373
p137
(lp138
(dp139
Vinstructor
p140
VBURGESS
p141
sVid
p142
V7431080
p143
sVname
p144
NsasssV62
p145
(dp146
g6
VCFA INT
p147
sg8
V8823
p148
sg10
(dp149
V62328
p150
(lp151
(dp152
Vinstructor
p153
NsVid
p154
V7429068
p155
sVname
p156
NsasV62743
p157
(lp158
(dp159
Vinstructor
p160
NsVid
p161
V7429203
p162
sVname
p163
NsasssV65
p164
(dp165
g6
VH&SS
p166
sg8
V8824
p167
sg10
(dp168
V65202
p169
(lp170
(dp171
Vinstructor
p172
VHAGGERTY
p173
sVid
p174
V7429175
p175
sVname
p176
NsasssV67
p177
(dp178
g6
VH&SS INT
p179
sg8
V8826
p180
sg10
(dp181
V67250
p182
(lp183
(dp184
Vinstructor
p185
VMCKNIGHT
p186
sVid
p187
V7428847
p188
sVname
p189
NsasssV82
p190
(dp191
g6
VMD LANG
p192
sg8
V8836
p193
sg10
(dp194
V82878
p195
(lp196
(dp197
Vinstructor
p198
VDRONJIC
p199
sVid
p200
V7429103
p201
sVname
p202
VA
sasV82732
p203
(lp204
(dp205
Vinstructor
p206
VWU
p207
sVid
p208
V7429087
p209
sVname
p210
NsasV82292
p211
(lp212
(dp213
Vinstructor
p214
NsVid
p215
V7429105
p216
sVname
p217
NsasV82580
p218
(lp219
(dp220
Vinstructor
p221
VTUCKER
p222
sVid
p223
V7429122
p224
sVname
p225
NsasV82397
p226
(lp227
(dp228
Vinstructor
p229
VCASTELLANO
p230
sVid
p231
V7429106
p232
sVname
p233
NsasV82132
p234
(lp235
(dp236
Vinstructor
p237
VLIU
p238
sVid
p239
V7429118
p240
sVname
p241
NsasV82131
p242
(lp243
(dp244
Vinstructor
p245
VLIU
p246
sVid
p247
V7429119
p248
sVname
p249
NsasV82231
p250
(lp251
(dp252
Vinstructor
p253
VYAO
p254
sVid
p255
V7429110
p256
sVname
p257
NsasV82232
p258
(lp259
(dp260
Vinstructor
p261
VYAO
p262
sVid
p263
V7429112
p264
sVname
p265
NsasV82172
p266
(lp267
(dp268
Vinstructor
p269
NsVid
p270
V7429114
p271
sVname
p272
NsasV82171
p273
(lp274
(dp275
Vinstructor
p276
NsVid
p277
V7429113
p278
sVname
p279
NsasV82122/123
p280
(lp281
(dp282
Vinstructor
p283
NsVid
p284
V7429225
p285
sVname
p286
NsasV82888
p287
(lp288
(dp289
Vinstructor
p290
VJONES
p291
sVid
p292
V7429090
p293
sVname
p294
NsasV82345
p295
(lp296
(dp297
Vinstructor
p298
VDWORKIN
p299
sVid
p300
V7429102
p301
sVname
p302
NsasV82333
p303
(lp304
(dp305
Vinstructor
p306
VKASKE
p307
sVid
p308
V7429085
p309
sVname
p310
VA,B
p311
sasV82192
p312
(lp313
(dp314
Vinstructor
p315
NsVid
p316
V7429104
p317
sVname
p318
NsasV82271
p319
(lp320
(dp321
Vinstructor
p322
NsVid
p323
V7429115
p324
sVname
p325
NsasV82272
p326
(lp327
(dp328
Vinstructor
p329
NsVid
p330
V7429116
p331
sVname
p332
NsasV82273
p333
(lp334
(dp335
Vinstructor
p336
VLITT
p337
sVid
p338
V7429092
p339
sVname
p340
VB
sasV82334
p341
(lp342
(dp343
Vinstructor
p344
VYAO
p345
sVid
p346
V7429111
p347
sVname
p348
NsasV82895
p349
(lp350
(dp351
Vinstructor
p352
VTUCKER
p353
sVid
p354
V7429123
p355
sVname
p356
NsasV82372
p357
(lp358
(dp359
Vinstructor
p360
NsVid
p361
V7429117
p362
sVname
p363
NsasV82782
p364
(lp365
(dp366
Vinstructor
p367
VACHUGAR
p368
sVid
p369
V7429107
p370
sVname
p371
NsasV82102
p372
(lp373
(dp374
Vinstructor
p375
NsVid
p376
V7429167
p377
sVname
p378
NsasV82344
p379
(lp380
(dp381
Vinstructor
p382
VDWORKIN
p383
sVid
p384
V7429101
p385
sVname
p386
NsasV82101
p387
(lp388
(dp389
Vinstructor
p390
NsVid
p391
V7429166
p392
sVname
p393
NsasV82162
p394
(lp395
(dp396
Vinstructor
p397
VPUPPO
p398
sVid
p399
V7429088
p400
sVname
p401
VD
sa(dp402
Vinstructor
p403
VVAIRO
p404
sVid
p405
V7429121
p406
sVname
p407
VA,B,C
p408
sasV82163
p409
(lp410
(dp411
Vinstructor
p412
VPUPPO
p413
sVid
p414
V7429089
p415
sVname
p416
VA
sasV82121
p417
g281
sV82451
p418
(lp419
(dp420
Vinstructor
p421
VTARDIO
p422
sVid
p423
V7429100
p424
sVname
p425
NsasV82300
p426
(lp427
(dp428
Vinstructor
p429
NsVid
p430
V7429176
p431
sVname
p432
NsasV82281
p433
(lp434
(dp435
Vinstructor
p436
VPOLANSKY
p437
sVid
p438
V7429093
p439
sVname
p440
NsasV82456
p441
(lp442
(dp443
Vinstructor
p444
VGOMEZ
p445
sVid
p446
V7429096
p447
sVname
p448
VA
sasV82222
p449
(lp450
(dp451
Vinstructor
p452
VEICHMANS
p453
sVid
p454
V7429109
p455
sVname
p456
VA
sasV82221
p457
g450
sV82142
p458
(lp459
(dp460
Vinstructor
p461
VGULISH
p462
sVid
p463
V7429098
p464
sVname
p465
NsasV82416
p466
(lp467
(dp468
Vinstructor
p469
VJONES
p470
sVid
p471
V7429091
p472
sVname
p473
NsasV82141
p474
g459
sV82262
p475
(lp476
(dp477
Vinstructor
p478
VVAIRO
p479
sVid
p480
V7429120
p481
sVname
p482
NsasV82241
p483
(lp484
(dp485
Vinstructor
p486
VTARDIO
p487
sVid
p488
V7429099
p489
sVname
p490
NsasV82495
p491
(lp492
(dp493
Vinstructor
p494
VWU
p495
sVid
p496
V7429086
p497
sVname
p498
NsasV82242
p499
(lp500
(dp501
Vinstructor
p502
VGOMEZ
p503
sVid
p504
V7429094
p505
sVname
p506
VA
sa(dp507
Vinstructor
p508
VGOMEZ
p509
sVid
p510
V7429095
p511
sVname
p512
VB
sasV82201
p513
(lp514
(dp515
Vinstructor
p516
NsVid
p517
V7429168
p518
sVname
p519
NsasV82323
p520
(lp521
(dp522
Vinstructor
p523
NsVid
p524
V7429226
p525
sVname
p526
NsasV82474
p527
(lp528
(dp529
Vinstructor
p530
VTAGUCHI
p531
sVid
p532
V7429124
p533
sVname
p534
NsasV82202
p535
g514
sV82186
p536
(lp537
(dp538
Vinstructor
p539
VKATS
p540
sVid
p541
V7429188
p542
sVname
p543
NsasV82342
p544
(lp545
(dp546
Vinstructor
p547
VGULISH
p548
sVid
p549
V7429097
p550
sVname
p551
NsasV82343
p552
(lp553
(dp554
Vinstructor
p555
VACHUGAR
p556
sVid
p557
V7429108
p558
sVname
p559
NsasssV80
p560
(dp561
g6
VPHILOSOPHY
p562
sg8
V8835
p563
sg10
(dp564
V80230
p565
(lp566
(dp567
Vinstructor
p568
VLONDON
p569
sVid
p570
V7429077
p571
sVname
p572
NsasV80515
p573
(lp574
(dp575
Vinstructor
p576
VSEIDENFELD
p577
sVid
p578
V7429083
p579
sVname
p580
NsasV80100
p581
(lp582
(dp583
Vinstructor
p584
VNORMAN
p585
sVid
p586
V7429073
p587
sVname
p588
VSECTION 2
p589
sasV80815
p590
g574
sV80385
p591
(lp592
(dp593
Vinstructor
p594
VWERNER
p595
sVid
p596
V7429081
p597
sVname
p598
NsasV80180
p599
(lp600
(dp601
Vinstructor
p602
NsVid
p603
V7429076
p604
sVname
p605
VL1
p606
sasV80256
p607
(lp608
(dp609
Vinstructor
p610
NsVid
p611
V7430980
p612
sVname
p613
NsasV80622
p614
(lp615
(dp616
Vinstructor
p617
VHARRELL
p618
sVid
p619
V7429079
p620
sVname
p621
NsasV80284
p622
(lp623
(dp624
Vinstructor
p625
VGEORGE
p626
sVid
p627
V7429078
p628
sVname
p629
NsasV80335
p630
(lp631
(dp632
Vinstructor
p633
VCAVALIER
p634
sVid
p635
V7429080
p636
sVname
p637
NsasV80705
p638
(lp639
(dp640
Vinstructor
p641
VBJORNDAHL
p642
sVid
p643
V7429082
p644
sVname
p645
NsasV80135
p646
(lp647
(dp648
Vinstructor
p649
VCAVALIER
p650
sVid
p651
V7429075
p652
sVname
p653
NsasV80865
p654
g592
sV80110
p655
(lp656
(dp657
Vinstructor
p658
NsVid
p659
V7429074
p660
sVname
p661
NsasV80405
p662
g639
sV80322
p663
g615
sssV85
p664
(dp665
g6
VPSYCHOLOGY
p666
sg8
V8837
p667
sg10
(dp668
V85310
p669
(lp670
(dp671
Vinstructor
p672
VHELLER
p673
sVid
p674
V7429158
p675
sVname
p676
NsasV85221
p677
(lp678
(dp679
Vinstructor
p680
VCARVER
p681
sVid
p682
V7429156
p683
sVname
p684
NsasV85712
p685
(lp686
(dp687
Vinstructor
p688
VANDERSON
p689
sVid
p690
V7429189
p691
sVname
p692
NsasV85241
p693
(lp694
(dp695
Vinstructor
p696
VCOX-BOYD/HELGESON
p697
sVid
p698
V7429157
p699
sVname
p700
VA,B
p701
sasV85385
p702
(lp703
(dp704
Vinstructor
p705
VHELLER
p706
sVid
p707
V7429162
p708
sVname
p709
NsasV85211
p710
(lp711
(dp712
Vinstructor
p713
VTHIESSEN
p714
sVid
p715
V7429155
p716
sVname
p717
NsasV85785
p718
g703
sV85356
p719
(lp720
(dp721
Vinstructor
p722
VHOLT
p723
sVid
p724
V7429161
p725
sVname
p726
NsasV85115
p727
(lp728
(dp729
Vinstructor
p730
VPLAUT
p731
sVid
p732
V7429129
p733
sVname
p734
NsasV85412
p735
g686
sV85352
p736
(lp737
(dp738
Vinstructor
p739
VRAKISON
p740
sVid
p741
V7429160
p742
sVname
p743
NsasV85340
p744
(lp745
(dp746
Vinstructor
p747
NsVid
p748
V7429153
p749
sVname
p750
VA
sasV85350
p751
(lp752
(dp753
Vinstructor
p754
VCOX-BOYD
p755
sVid
p756
V7429159
p757
sVname
p758
NsasV85852
p759
g737
sssV02
p760
(dp761
g6
VCOMP BIO
p762
sg8
V8787
p763
sg10
(dp764
V02250
p765
(lp766
(dp767
Vinstructor
p768
VSCHWARTZ
p769
sVid
p770
V7428868
p771
sVname
p772
NsasV02251
p773
g766
sssV03
p774
(dp775
g6
VBIOLOGY
p776
sg8
V8788
p777
sg10
(dp778
V03350
p779
(lp780
(dp781
Vinstructor
p782
VETTENSOHN
p783
sVid
p784
V7428809
p785
sVname
p786
NsasV03410
p787
(lp788
(dp789
Vinstructor
p790
VKUHLMAN
p791
sVid
p792
V7428864
p793
sVname
p794
NsasV03161
p795
(lp796
(dp797
Vinstructor
p798
NsVid
p799
V7428806
p800
sVname
p801
NsasV03390
p802
(lp803
(dp804
Vinstructor
p805
VRULE
p806
sVid
p807
V7428866
p808
sVname
p809
NsasV03232
p810
(lp811
(dp812
Vinstructor
p813
VRULE
p814
sVid
p815
V7428865
p816
sVname
p817
NsasV03251
p818
(lp819
(dp820
Vinstructor
p821
VSCHWARTZ
p822
sVid
p823
V7428867
p824
sVname
p825
NsasV03250
p826
g819
sV03240
p827
(lp828
(dp829
Vinstructor
p830
VPUTHENVEEDU
p831
sVid
p832
V7428807
p833
sVname
p834
NsasV03363
p835
(lp836
(dp837
Vinstructor
p838
NsVid
p839
V7428808
p840
sVname
p841
NsasssV27
p842
(dp843
g6
VMAT SCI
p844
sg8
V8805
p845
sg10
(dp846
V27367
p847
(lp848
(dp849
Vinstructor
p850
VHEARD
p851
sVid
p852
V7428837
p853
sVname
p854
NsasV27454
p855
(lp856
(dp857
Vinstructor
p858
VMCHENRY
p859
sVid
p860
V7428836
p861
sVname
p862
NsasV27520
p863
(lp864
(dp865
Vinstructor
p866
VFEINBERG
p867
sVid
p868
V7429127
p869
sVname
p870
NsasV27592
p871
(lp872
(dp873
Vinstructor
p874
VPISTORIUS
p875
sVid
p876
V7429172
p877
sVname
p878
NsasV27591
p879
(lp880
(dp881
Vinstructor
p882
VGARRISON
p883
sVid
p884
V7428833
p885
sVname
p886
NsasV27565
p887
(lp888
(dp889
Vinstructor
p890
VISLAM
p891
sVid
p892
V7428870
p893
sVname
p894
VA
sasV27742
p895
(lp896
(dp897
Vinstructor
p898
VDAVIS
p899
sVid
p900
V7429216
p901
sVname
p902
NsasV27763
p903
(lp904
(dp905
Vinstructor
p906
VDEGRAEF
p907
sVid
p908
V7428871
p909
sVname
p910
VA
sasV27705
p911
g888
sV27542
p912
(lp913
(dp914
Vinstructor
p915
VPORTER
p916
sVid
p917
V7428835
p918
sVname
p919
NsasV27792
p920
g872
sV27791
p921
g880
sV27357
p922
(lp923
(dp924
Vinstructor
p925
VROLLETT
p926
sVid
p927
V7428834
p928
sVname
p929
NsasV27771
p930
(lp931
(dp932
Vinstructor
p933
VOHODNICKI
p934
sVid
p935
V7429126
p936
sVname
p937
VA
sasV27216
p938
(lp939
(dp940
Vinstructor
p941
VHOLM
p942
sVid
p943
V7428872
p944
sVname
p945
VA
sasssV06
p946
(dp947
g6
VCHEM ENG
p948
sg8
V8791
p949
sg10
(dp950
V06462
p951
(lp952
(dp953
Vinstructor
p954
VGOUNARIS
p955
sVid
p956
V7428811
p957
sVname
p958
NsasV06621
p959
(lp960
(dp961
Vinstructor
p962
VJHON
p963
sVid
p964
V7429200
p965
sVname
p966
NsasV06100
p967
(lp968
(dp969
Vinstructor
p970
VSTEPPAN
p971
sVid
p972
V7428810
p973
sVname
p974
NsasssV21
p975
(dp976
g6
VMATH
p977
sg8
V8803
p978
sg10
(dp979
V21101
p980
(lp981
(dp982
Vinstructor
p983
VMACKEY
p984
sVid
p985
V7428966
p986
sVname
p987
VA
sasV21484
p988
(lp989
(dp990
Vinstructor
p991
VYERGER
p992
sVid
p993
V7428985
p994
sVname
p995
VA
sasV21355
p996
(lp997
(dp998
Vinstructor
p999
VSLEPCEV
p1000
sVid
p1001
V7428979
p1002
sVname
p1003
VA
sasV21124
p1004
(lp1005
(dp1006
Vinstructor
p1007
VHANDRON, FLAHERTY
p1008
sVid
p1009
V7428967
p1010
sVname
p1011
VALL
p1012
sasV21257
p1013
(lp1014
(dp1015
Vinstructor
p1016
NsVid
p1017
V7428971
p1018
sVname
p1019
VALL
p1020
sasV21256
p1021
g1014
sV21373
p1022
(lp1023
(dp1024
Vinstructor
p1025
NsVid
p1026
V7428982
p1027
sVname
p1028
NsasV21374
p1029
(lp1030
(dp1031
Vinstructor
p1032
VJOHNSON
p1033
sVid
p1034
V7428983
p1035
sVname
p1036
VA
sasV21420
p1037
(lp1038
(dp1039
Vinstructor
p1040
VLARSEN
p1041
sVid
p1042
V7428984
p1043
sVname
p1044
VA
sasV21260
p1045
(lp1046
(dp1047
Vinstructor
p1048
NsVid
p1049
V7428972
p1050
sVname
p1051
VALL
p1052
sasV21122,256,259
p1053
(lp1054
(dp1055
Vinstructor
p1056
NsVid
p1057
V7428965
p1058
sVname
p1059
NsasV21341
p1060
(lp1061
(dp1062
Vinstructor
p1063
VPEGO
p1064
sVid
p1065
V7428978
p1066
sVname
p1067
VA
sasV21228
p1068
(lp1069
(dp1070
Vinstructor
p1071
VLOH
p1072
sVid
p1073
V7428968
p1074
sVname
p1075
VALL
p1076
sasV21369
p1077
(lp1078
(dp1079
Vinstructor
p1080
NsVid
p1081
V7428981
p1082
sVname
p1083
VA
sasV21301
p1084
(lp1085
(dp1086
Vinstructor
p1087
VKOMAROV
p1088
sVid
p1089
V7428976
p1090
sVname
p1091
NsasV21268
p1092
(lp1093
(dp1094
Vinstructor
p1095
VMIHAI
p1096
sVid
p1097
V7428974
p1098
sVname
p1099
NsasV21240
p1100
(lp1101
(dp1102
Vinstructor
p1103
VFLAHERTY
p1104
sVid
p1105
V7428969
p1106
sVname
p1107
VALL
p1108
sasV21241
p1109
(lp1110
(dp1111
Vinstructor
p1112
VHANDRON
p1113
sVid
p1114
V7428970
p1115
sVname
p1116
VALL
p1117
sasV21630
p1118
(lp1119
(dp1120
Vinstructor
p1121
VPEGO
p1122
sVid
p1123
V7428987
p1124
sVname
p1125
VA
sasV21329
p1126
(lp1127
(dp1128
Vinstructor
p1129
VCONLEY
p1130
sVid
p1131
V7428977
p1132
sVname
p1133
VA
sasV21261
p1134
(lp1135
(dp1136
Vinstructor
p1137
VSCHAEFFER
p1138
sVid
p1139
V7428973
p1140
sVname
p1141
VA
sasV21366
p1142
(lp1143
(dp1144
Vinstructor
p1145
VSTATMAN
p1146
sVid
p1147
V7428980
p1148
sVname
p1149
VB
sasV21111,112,120,
p1150
(lp1151
(dp1152
Vinstructor
p1153
NsVid
p1154
V7428964
p1155
sVname
p1156
NsasV21732
p1157
(lp1158
(dp1159
Vinstructor
p1160
VTICE
p1161
sVid
p1162
V7428988
p1163
sVname
p1164
VA
sasV21499
p1165
(lp1166
(dp1167
Vinstructor
p1168
VKINDERLEHRER
p1169
sVid
p1170
V7428986
p1171
sVname
p1172
VA
sasV21292
p1173
(lp1174
(dp1175
Vinstructor
p1176
VTA'ASAN
p1177
sVid
p1178
V7428975
p1179
sVname
p1180
VALL
p1181
sasV21805
p1182
g1143
sssV48
p1183
(dp1184
g6
VARCHT
p1185
sg8
V8817
p1186
sg10
(dp1187
V48440
p1188
(lp1189
(dp1190
Vinstructor
p1191
NsVid
p1192
V7429231
p1193
sVname
p1194
NsasV48550
p1195
(lp1196
(dp1197
Vinstructor
p1198
VVAVASIS
p1199
sVid
p1200
V7428843
p1201
sVname
p1202
NsasV48838
p1203
(lp1204
(dp1205
Vinstructor
p1206
VAKIN
p1207
sVid
p1208
V7428842
p1209
sVname
p1210
NsasV48711
p1211
(lp1212
(dp1213
Vinstructor
p1214
VAKIN
p1215
sVid
p1216
V7428846
p1217
sVname
p1218
NsasV48712
p1219
(lp1220
(dp1221
Vinstructor
p1222
VCARTER
p1223
sVid
p1224
V7429183
p1225
sVname
p1226
NsasV48240
p1227
(lp1228
(dp1229
Vinstructor
p1230
NsVid
p1231
V7429195
p1232
sVname
p1233
NsasssV05
p1234
(dp1235
g6
VHCII
p1236
sg8
V8790
p1237
sg10
(dp1238
V05899
p1239
(lp1240
(dp1241
Vinstructor
p1242
NsVid
p1243
V7428820
p1244
sVname
p1245
Nsa(dp1246
Vinstructor
p1247
VCRANOR
p1248
sVid
p1249
V7429186
p1250
sVname
p1251
V?
sasssV08
p1252
(dp1253
g6
VISRI
p1254
sg8
V21203
p1255
sg10
(dp1256
V08734
p1257
(lp1258
(dp1259
Vinstructor
p1260
VCRANOR
p1261
sVid
p1262
V7429185
p1263
sVname
p1264
NsasV08534
p1265
g1258
sssV09
p1266
(dp1267
g6
VCHEMISTRY
p1268
sg8
V8792
p1269
sg10
(dp1270
V09218
p1271
(lp1272
(dp1273
Vinstructor
p1274
NsVid
p1275
V7428908
p1276
sVname
p1277
NsasV09741
p1278
(lp1279
(dp1280
Vinstructor
p1281
NsVid
p1282
V7428816
p1283
sVname
p1284
NsasV09742
p1285
(lp1286
(dp1287
Vinstructor
p1288
VPATTERSON
p1289
sVid
p1290
V7428921
p1291
sVname
p1292
NsasV09214
p1293
(lp1294
(dp1295
Vinstructor
p1296
VMANDAL
p1297
sVid
p1298
V7428907
p1299
sVname
p1300
NsasV09510
p1301
(lp1302
(dp1303
Vinstructor
p1304
VCOLLINS
p1305
sVid
p1306
V7428913
p1307
sVname
p1308
NsasV09106
p1309
(lp1310
(dp1311
Vinstructor
p1312
NsVid
p1313
V7428905
p1314
sVname
p1315
NsasV09204
p1316
(lp1317
(dp1318
Vinstructor
p1319
VVUOCOLO
p1320
sVid
p1321
V7428906
p1322
sVname
p1323
NsasV09122
p1324
(lp1325
(dp1326
Vinstructor
p1327
VSILVA
p1328
sVid
p1329
V7428813
p1330
sVname
p1331
NsasV09345
p1332
(lp1333
(dp1334
Vinstructor
p1335
VGUO
p1336
sVid
p1337
V7428912
p1338
sVname
p1339
NsasV09736
p1340
(lp1341
(dp1342
Vinstructor
p1343
VNOONAN
p1344
sVid
p1345
V7428920
p1346
sVname
p1347
NsasV09536
p1348
(lp1349
(dp1350
Vinstructor
p1351
VNOONAN
p1352
sVid
p1353
V7428916
p1354
sVname
p1355
NsasV09348
p1356
(lp1357
(dp1358
Vinstructor
p1359
NsVid
p1360
V7428812
p1361
sVname
p1362
NsasV09105
p1363
(lp1364
(dp1365
Vinstructor
p1366
NsVid
p1367
V7428904
p1368
sVname
p1369
NsasV09531
p1370
(lp1371
(dp1372
Vinstructor
p1373
NsVid
p1374
V7428915
p1375
sVname
p1376
NsasV09611
p1377
(lp1378
(dp1379
Vinstructor
p1380
NsVid
p1381
V7428917
p1382
sVname
p1383
NsasV09710
p1384
(lp1385
(dp1386
Vinstructor
p1387
VCOLLINS
p1388
sVid
p1389
V7428918
p1390
sVname
p1391
NsasV09222
p1392
(lp1393
(dp1394
Vinstructor
p1395
VGRAUL
p1396
sVid
p1397
V7428911
p1398
sVname
p1399
NsasV09220
p1400
(lp1401
(dp1402
Vinstructor
p1403
NsVid
p1404
V7428909
p1405
sVname
p1406
NsasV09221
p1407
(lp1408
(dp1409
Vinstructor
p1410
VSHERWOOD
p1411
sVid
p1412
V7428910
p1413
sVname
p1414
NsasV09714
p1415
(lp1416
(dp1417
Vinstructor
p1418
VSILVA
p1419
sVid
p1420
V7428814
p1421
sVname
p1422
NsasV09524
p1423
(lp1424
(dp1425
Vinstructor
p1426
NsVid
p1427
V7428914
p1428
sVname
p1429
NsasV09812
p1430
(lp1431
(dp1432
Vinstructor
p1433
VNOONAN
p1434
sVid
p1435
V7428922
p1436
sVname
p1437
NsasV09560
p1438
(lp1439
(dp1440
Vinstructor
p1441
NsVid
p1442
V7429237
p1443
sVname
p1444
NsasV09724
p1445
(lp1446
(dp1447
Vinstructor
p1448
VSULLIVAN
p1449
sVid
p1450
V7428919
p1451
sVname
p1452
NsasV09502
p1453
(lp1454
(dp1455
Vinstructor
p1456
NsVid
p1457
V7428815
p1458
sVname
p1459
NsasssV42
p1460
(dp1461
g6
VBIO MD
p1462
sg8
V8813
p1463
sg10
(dp1464
V42612
p1465
(lp1466
(dp1467
Vinstructor
p1468
NsVid
p1469
V7429128
p1470
sVname
p1471
NsasV42630
p1472
(lp1473
(dp1474
Vinstructor
p1475
NsVid
p1476
V7429211
p1477
sVname
p1478
NsasV42647
p1479
(lp1480
(dp1481
Vinstructor
p1482
NsVid
p1483
V7429005
p1484
sVname
p1485
NsasV42735
p1486
(lp1487
(dp1488
Vinstructor
p1489
NsVid
p1490
V7428942
p1491
sVname
p1492
NsasV42202
p1493
(lp1494
(dp1495
Vinstructor
p1496
NsVid
p1497
V7428903
p1498
sVname
p1499
NsasssV24
p1500
(dp1501
g6
VMECH ENG
p1502
sg8
V8804
p1503
sg10
(dp1504
V24740
p1505
(lp1506
(dp1507
Vinstructor
p1508
VPRESTO
p1509
sVid
p1510
V7428886
p1511
sVname
p1512
NsasV24718
p1513
(lp1514
(dp1515
Vinstructor
p1516
VHIGGS III
p1517
sVid
p1518
V7428889
p1519
sVname
p1520
NsasV24262
p1521
(lp1522
(dp1523
Vinstructor
p1524
VSTEIF
p1525
sVid
p1526
V7428888
p1527
sVname
p1528
NsasV24101
p1529
(lp1530
(dp1531
Vinstructor
p1532
VMCGAUGHEY
p1533
sVid
p1534
V7428884
p1535
sVname
p1536
NsasV24370
p1537
(lp1538
(dp1539
Vinstructor
p1540
VCOLLINS
p1541
sVid
p1542
V7428885
p1543
sVname
p1544
NsasV24659
p1545
(lp1546
(dp1547
Vinstructor
p1548
NsVid
p1549
V7429006
p1550
sVname
p1551
NsasV24292
p1552
(lp1553
(dp1554
Vinstructor
p1555
VYAO
p1556
sVid
p1557
V7428883
p1558
sVname
p1559
NsasV24231
p1560
(lp1561
(dp1562
Vinstructor
p1563
VLISTER
p1564
sVid
p1565
V7428890
p1566
sVname
p1567
NsasV24651
p1568
(lp1569
(dp1570
Vinstructor
p1571
VDE BOER
p1572
sVid
p1573
V7428891
p1574
sVname
p1575
NsasV24425
p1576
g1506
sssV76
p1577
(dp1578
g6
VENGLISH
p1579
sg8
V8832
p1580
sg10
(dp1581
V76390
p1582
(lp1583
(dp1584
Vinstructor
p1585
VODDO
p1586
sVid
p1587
V7429037
p1588
sVname
p1589
NsasV76467
p1590
(lp1591
(dp1592
Vinstructor
p1593
NsVid
p1594
V7429044
p1595
sVname
p1596
NsasV76394
p1597
(lp1598
(dp1599
Vinstructor
p1600
NsVid
p1601
V7429038
p1602
sVname
p1603
NsasV76786
p1604
(lp1605
(dp1606
Vinstructor
p1607
NsVid
p1608
V7429035
p1609
sVname
p1610
NsasV76378
p1611
(lp1612
(dp1613
Vinstructor
p1614
VFLOWER
p1615
sVid
p1616
V7429033
p1617
sVname
p1618
NsasV76420
p1619
(lp1620
(dp1621
Vinstructor
p1622
NsVid
p1623
V7429041
p1624
sVname
p1625
NsasV76241
p1626
(lp1627
(dp1628
Vinstructor
p1629
NsVid
p1630
V7429021
p1631
sVname
p1632
NsasV76221
p1633
(lp1634
(dp1635
Vinstructor
p1636
NsVid
p1637
V7429018
p1638
sVname
p1639
NsasV76245
p1640
(lp1641
(dp1642
Vinstructor
p1643
NsVid
p1644
V7429022
p1645
sVname
p1646
NsasV76450
p1647
(lp1648
(dp1649
Vinstructor
p1650
NsVid
p1651
V7429043
p1652
sVname
p1653
NsasV76847
p1654
g1591
sV76369
p1655
(lp1656
(dp1657
Vinstructor
p1658
NsVid
p1659
V7429032
p1660
sVname
p1661
NsasV76472
p1662
(lp1663
(dp1664
Vinstructor
p1665
NsVid
p1666
V7429046
p1667
sVname
p1668
NsasV76759
p1669
(lp1670
(dp1671
Vinstructor
p1672
NsVid
p1673
V7429030
p1674
sVname
p1675
NsasV76717
p1676
(lp1677
(dp1678
Vinstructor
p1679
NsVid
p1680
V7428876
p1681
sVname
p1682
NsasV76785
p1683
(lp1684
(dp1685
Vinstructor
p1686
NsVid
p1687
V7429034
p1688
sVname
p1689
NsasV76820
p1690
g1620
sV76775
p1691
(lp1692
(dp1693
Vinstructor
p1694
NsVid
p1695
V7429047
p1696
sVname
p1697
NsasV76778
p1698
g1612
sV76234
p1699
(lp1700
(dp1701
Vinstructor
p1702
NsVid
p1703
V7429019
p1704
sVname
p1705
NsasV76415
p1706
(lp1707
(dp1708
Vinstructor
p1709
NsVid
p1710
V7429040
p1711
sVname
p1712
NsasV76416
p1713
(lp1714
(dp1715
Vinstructor
p1716
VWILLIAMS
p1717
sVid
p1718
V7428863
p1719
sVname
p1720
NsasV76143
p1721
(lp1722
(dp1723
Vinstructor
p1724
VDANIELS
p1725
sVid
p1726
V7429015
p1727
sVname
p1728
NsasV76411
p1729
(lp1730
(dp1731
Vinstructor
p1732
NsVid
p1733
V7429039
p1734
sVname
p1735
NsasV76297
p1736
(lp1737
(dp1738
Vinstructor
p1739
NsVid
p1740
V7429242
p1741
sVname
p1742
NsasV76385
p1743
g1684
sV76475
p1744
g1692
sV76386
p1745
g1605
sV76349
p1746
(lp1747
(dp1748
Vinstructor
p1749
NsVid
p1750
V7429029
p1751
sVname
p1752
NsasV76447
p1753
(lp1754
(dp1755
Vinstructor
p1756
NsVid
p1757
V7429042
p1758
sVname
p1759
NsasV76211
p1760
(lp1761
(dp1762
Vinstructor
p1763
NsVid
p1764
V7429016
p1765
sVname
p1766
NsasV76368
p1767
(lp1768
(dp1769
Vinstructor
p1770
NsVid
p1771
V7429031
p1772
sVname
p1773
NsasV76212
p1774
(lp1775
(dp1776
Vinstructor
p1777
NsVid
p1778
V7429017
p1779
sVname
p1780
NsasV76365
p1781
(lp1782
(dp1783
Vinstructor
p1784
NsVid
p1785
V7429178
p1786
sVname
p1787
VB
sasV76342
p1788
(lp1789
(dp1790
Vinstructor
p1791
VAGUIAR
p1792
sVid
p1793
V7429173
p1794
sVname
p1795
NsasV76239
p1796
(lp1797
(dp1798
Vinstructor
p1799
NsVid
p1800
V7429020
p1801
sVname
p1802
NsasV76101
p1803
(lp1804
(dp1805
Vinstructor
p1806
NsVid
p1807
V7429051
p1808
sVname
p1809
VAA,C
p1810
sa(dp1811
Vinstructor
p1812
NsVid
p1813
V7429052
p1814
sVname
p1815
VB,D,E,FF,H,I,JJ,O
p1816
sa(dp1817
Vinstructor
p1818
NsVid
p1819
V7429053
p1820
sVname
p1821
VOO,Q,TT
p1822
sa(dp1823
Vinstructor
p1824
NsVid
p1825
V7429054
p1826
sVname
p1827
VBB
p1828
sa(dp1829
Vinstructor
p1830
NsVid
p1831
V7429055
p1832
sVname
p1833
VCC, F
p1834
sa(dp1835
Vinstructor
p1836
NsVid
p1837
V7429056
p1838
sVname
p1839
VN
sa(dp1840
Vinstructor
p1841
NsVid
p1842
V7429057
p1843
sVname
p1844
VS
sa(dp1845
Vinstructor
p1846
VBOWMAN
p1847
sVid
p1848
V7429147
p1849
sVname
p1850
VEE, II
p1851
sa(dp1852
Vinstructor
p1853
VPENMAN
p1854
sVid
p1855
V7429148
p1856
sVname
p1857
VNN
p1858
sa(dp1859
Vinstructor
p1860
VWISCOMB
p1861
sVid
p1862
V7429149
p1863
sVname
p1864
VR, SS
p1865
sa(dp1866
Vinstructor
p1867
VSTACK
p1868
sVid
p1869
V7429208
p1870
sVname
p1871
VJ,MM
p1872
sa(dp1873
Vinstructor
p1874
NsVid
p1875
V7429209
p1876
sVname
p1877
VK,P
p1878
sa(dp1879
Vinstructor
p1880
VSAMPSEL
p1881
sVid
p1882
V7429210
p1883
sVname
p1884
VL
sasV76100
p1885
(lp1886
(dp1887
Vinstructor
p1888
VCANALE, GORDON
p1889
sVid
p1890
V7429150
p1891
sVname
p1892
VA,B,C
p1893
sasV76389
p1894
(lp1895
(dp1896
Vinstructor
p1897
NsVid
p1898
V7429036
p1899
sVname
p1900
NsasV76427
p1901
g1737
sV76851
p1902
(lp1903
(dp1904
Vinstructor
p1905
NsVid
p1906
V7429049
p1907
sVname
p1908
NsasV76850
p1909
g1648
sV76492
p1910
(lp1911
(dp1912
Vinstructor
p1913
NsVid
p1914
V7429048
p1915
sVname
p1916
NsasV76469
p1917
(lp1918
(dp1919
Vinstructor
p1920
NsVid
p1921
V7429045
p1922
sVname
p1923
NsasV76858
p1924
(lp1925
(dp1926
Vinstructor
p1927
VKLANCHER
p1928
sVid
p1929
V7429050
p1930
sVname
p1931
NsasV76811
p1932
g1730
sV76816
p1933
g1714
sV76815
p1934
g1707
sV76790
p1935
g1583
sV76872
p1936
g1663
sV76359
p1937
g1670
sV76260
p1938
(lp1939
(dp1940
Vinstructor
p1941
VBERNSTEIN
p1942
sVid
p1943
V7429023
p1944
sVname
p1945
VA
sa(dp1946
Vinstructor
p1947
VGONZALEZ
p1948
sVid
p1949
V7429024
p1950
sVname
p1951
VB
sasV76135
p1952
(lp1953
(dp1954
Vinstructor
p1955
NsVid
p1956
V7429014
p1957
sVname
p1958
NsasV76892
p1959
g1911
sV76265
p1960
(lp1961
(dp1962
Vinstructor
p1963
VDANIELS
p1964
sVid
p1965
V7429025
p1966
sVname
p1967
VA
sa(dp1968
Vinstructor
p1969
NsVid
p1970
V7429179
p1971
sVname
p1972
VB
sasV76798
p1973
g1598
sV76269
p1974
(lp1975
(dp1976
Vinstructor
p1977
NsVid
p1978
V7429026
p1979
sVname
p1980
NsasV76313
p1981
(lp1982
(dp1983
Vinstructor
p1984
NsVid
p1985
V7429027
p1986
sVname
p1987
NsasV76315
p1988
(lp1989
(dp1990
Vinstructor
p1991
NsVid
p1992
V7429028
p1993
sVname
p1994
NsasV76317
p1995
g1677
sssVXX
p1996
(dp1997
g6
VCMARC
p1998
sg8
V8786
p1999
sg10
(dp2000
VXXXXX
p2001
(lp2002
(dp2003
Vinstructor
p2004
NsVid
p2005
V7429151
p2006
sVname
p2007
NsasssV73
p2008
(dp2009
g6
VECONOMICS
p2010
sg8
V8830
p2011
sg10
(dp2012
V73270
p2013
(lp2014
(dp2015
Vinstructor
p2016
VWYATT
p2017
sVid
p2018
V7428853
p2019
sVname
p2020
VA,B
p2021
sasV73341
p2022
(lp2023
(dp2024
Vinstructor
p2025
VKUSHNIR
p2026
sVid
p2027
V7428875
p2028
sVname
p2029
VA
sasV73407
p2030
(lp2031
(dp2032
Vinstructor
p2033
VDAVIS
p2034
sVid
p2035
V7429013
p2036
sVname
p2037
VA
sasV73348
p2038
(lp2039
(dp2040
Vinstructor
p2041
VHAFALIR
p2042
sVid
p2043
V7428860
p2044
sVname
p2045
VA
sasV73408
p2046
(lp2047
(dp2048
Vinstructor
p2049
VCLAY
p2050
sVid
p2051
V7429012
p2052
sVname
p2053
VA
sasV73465
p2054
(lp2055
(dp2056
Vinstructor
p2057
VDERDENGER
p2058
sVid
p2059
V7428861
p2060
sVname
p2061
NsasV73100
p2062
(lp2063
(dp2064
Vinstructor
p2065
VSLEET/KUSHNIR
p2066
sVid
p2067
V7428855
p2068
sVname
p2069
VA-G&H-M
p2070
sasV73101
p2071
(lp2072
(dp2073
Vinstructor
p2074
VHAFALIR
p2075
sVid
p2076
V7428856
p2077
sVname
p2078
VA
sasV73155
p2079
(lp2080
(dp2081
Vinstructor
p2082
VSPEAR
p2083
sVid
p2084
V7428858
p2085
sVname
p2086
VA
sasV73240
p2087
(lp2088
(dp2089
Vinstructor
p2090
VZETLIN-JONES
p2091
sVid
p2092
V7429187
p2093
sVname
p2094
VA,B
p2095
sasV73148
p2096
(lp2097
(dp2098
Vinstructor
p2099
VRUETER
p2100
sVid
p2101
V7428857
p2102
sVname
p2103
VA
sasV73230
p2104
(lp2105
(dp2106
Vinstructor
p2107
VKANG, BORANBAY
p2108
sVid
p2109
V7428859
p2110
sVname
p2111
VA-F
p2112
sasV73338
p2113
(lp2114
(dp2115
Vinstructor
p2116
NsVid
p2117
V7429011
p2118
sVname
p2119
NsasV73328
p2120
(lp2121
(dp2122
Vinstructor
p2123
NsVid
p2124
V7429137
p2125
sVname
p2126
NsasV73365
p2127
(lp2128
(dp2129
Vinstructor
p2130
VKRYUKOV
p2131
sVid
p2132
V7428854
p2133
sVname
p2134
NsasssV70
p2135
(dp2136
g6
VBUS ADMIN
p2137
sg8
V8828
p2138
sg10
(dp2139
V70415
p2140
(lp2141
(dp2142
Vinstructor
p2143
NsVid
p2144
V7429236
p2145
sVname
p2146
NsasV70391
p2147
(lp2148
(dp2149
Vinstructor
p2150
VTELMER
p2151
sVid
p2152
V7428849
p2153
sVname
p2154
NsasV70340
p2155
(lp2156
(dp2157
Vinstructor
p2158
VWYATT
p2159
sVid
p2160
V7428852
p2161
sVname
p2162
VA,B
p2163
sasV70342
p2164
(lp2165
(dp2166
Vinstructor
p2167
NsVid
p2168
V7429197
p2169
sVname
p2170
NsasV70451
p2171
(lp2172
(dp2173
Vinstructor
p2174
NsVid
p2175
V7429219
p2176
sVname
p2177
NsasV70425
p2178
(lp2179
(dp2180
Vinstructor
p2181
VCUNNINGHAM
p2182
sVid
p2183
V7429215
p2184
sVname
p2185
NsasV70398
p2186
(lp2187
(dp2188
Vinstructor
p2189
NsVid
p2190
V7429235
p2191
sVname
p2192
NsasV70311
p2193
(lp2194
(dp2195
Vinstructor
p2196
VFICHMAN
p2197
sVid
p2198
V7428850
p2199
sVname
p2200
NsasV70455
p2201
(lp2202
(dp2203
Vinstructor
p2204
VGATTERBAUER
p2205
sVid
p2206
V7429194
p2207
sVname
p2208
NsasV70371
p2209
(lp2210
(dp2211
Vinstructor
p2212
NsVid
p2213
V7429234
p2214
sVname
p2215
NsasV70422
p2216
(lp2217
(dp2218
Vinstructor
p2219
VSUDBURY
p2220
sVid
p2221
V7429084
p2222
sVname
p2223
NsasV70438
p2224
(lp2225
(dp2226
Vinstructor
p2227
NsVid
p2228
V7429229
p2229
sVname
p2230
NsasV7073465
p2231
(lp2232
(dp2233
Vinstructor
p2234
NsVid
p2235
V7429199
p2236
sVname
p2237
NsasV70332
p2238
(lp2239
(dp2240
Vinstructor
p2241
VHORNACK
p2242
sVid
p2243
V7429010
p2244
sVname
p2245
VA,B
p2246
sasV70465
p2247
g2232
sV70443
p2248
(lp2249
(dp2250
Vinstructor
p2251
NsVid
p2252
V7429228
p2253
sVname
p2254
NsasV70208
p2255
(lp2256
(dp2257
Vinstructor
p2258
VLESSEM
p2259
sVid
p2260
V7429146
p2261
sVname
p2262
NsasV70101
p2263
(lp2264
(dp2265
Vinstructor
p2266
VRAMIREZ
p2267
sVid
p2268
V7428851
p2269
sVname
p2270
VA
sasV70364
p2271
(lp2272
(dp2273
Vinstructor
p2274
VROBERTS
p2275
sVid
p2276
V7428848
p2277
sVname
p2278
NsasV70366
p2279
(lp2280
(dp2281
Vinstructor
p2282
NsVid
p2283
V7429198
p2284
sVname
p2285
NsasssV91
p2286
(dp2287
g6
VMPM
p2288
sg8
V8840
p2289
sg10
(dp2290
V91803
p2291
(lp2292
(dp2293
Vinstructor
p2294
VWESSEL
p2295
sVid
p2296
V7431262
p2297
sVname
p2298
NsasssV90
p2299
(dp2300
g6
VHEINZ
p2301
sg8
V8839
p2302
sg10
(dp2303
V94830
p2304
(lp2305
(dp2306
Vinstructor
p2307
VSUTKUS
p2308
sVid
p2309
V7429220
p2310
sVname
p2311
NsasV94843
p2312
(lp2313
(dp2314
Vinstructor
p2315
NsVid
p2316
V7429202
p2317
sVname
p2318
NsasV90827
p2319
(lp2320
(dp2321
Vinstructor
p2322
VWESSEL
p2323
sVid
p2324
V7431263
p2325
sVname
p2326
NsasV94802
p2327
(lp2328
(dp2329
Vinstructor
p2330
VGORR
p2331
sVid
p2332
V7429135
p2333
sVname
p2334
NsasV94735
p2335
(lp2336
(dp2337
Vinstructor
p2338
VGAYNOR
p2339
sVid
p2340
V7429136
p2341
sVname
p2342
NsasV90823
p2343
(lp2344
(dp2345
Vinstructor
p2346
NsVid
p2347
V7429134
p2348
sVname
p2349
NsasV90724
p2350
(lp2351
(dp2352
Vinstructor
p2353
VSMITH
p2354
sVid
p2355
V7429227
p2356
sVname
p2357
NsasV90718
p2358
(lp2359
(dp2360
Vinstructor
p2361
VROSENBERG
p2362
sVid
p2363
V7429181
p2364
sVname
p2365
VA,G
p2366
sasV90722
p2367
(lp2368
(dp2369
Vinstructor
p2370
VCAULKINS
p2371
sVid
p2372
V7429190
p2373
sVname
p2374
NsasV94702
p2375
(lp2376
(dp2377
Vinstructor
p2378
VHYATT
p2379
sVid
p2380
V7429138
p2381
sVname
p2382
Nsa(dp2383
Vinstructor
p2384
VROSENBERG
p2385
sVid
p2386
V7429182
p2387
sVname
p2388
VB
sa(dp2389
Vinstructor
p2390
VWALTER
p2391
sVid
p2392
V7429201
p2393
sVname
p2394
VA,C,D
p2395
sasssV93
p2396
(dp2397
g6
VIMCE
p2398
sg8
V8842
p2399
sg10
(dp2400
V93807
p2401
(lp2402
(dp2403
Vinstructor
p2404
VMCCALL
p2405
sVid
p2406
V7429213
p2407
sVname
p2408
VA
sasV93812
p2409
(lp2410
(dp2411
Vinstructor
p2412
NsVid
p2413
V7429205
p2414
sVname
p2415
NsasV93821
p2416
(lp2417
(dp2418
Vinstructor
p2419
NsVid
p2420
V7429204
p2421
sVname
p2422
NsasV93826
p2423
(lp2424
(dp2425
Vinstructor
p2426
VNAVARRO
p2427
sVid
p2428
V7429212
p2429
sVname
p2430
VA,B
p2431
sasV93716
p2432
(lp2433
(dp2434
Vinstructor
p2435
NsVid
p2436
V7429214
p2437
sVname
p2438
VA
sasssV95
p2439
(dp2440
g6
VMISM
p2441
sg8
V8843
p2442
sg10
(dp2443
V95771
p2444
(lp2445
(dp2446
Vinstructor
p2447
VMCCARTHY
p2448
sVid
p2449
V7429141
p2450
sVname
p2451
NsasV95820
p2452
(lp2453
(dp2454
Vinstructor
p2455
NsVid
p2456
V7429165
p2457
sVname
p2458
NsasV95733
p2459
(lp2460
(dp2461
Vinstructor
p2462
VMCCARTHY
p2463
sVid
p2464
V7429140
p2465
sVname
p2466
NsasV95736
p2467
(lp2468
(dp2469
Vinstructor
p2470
VTRZECIAK
p2471
sVid
p2472
V7429217
p2473
sVname
p2474
NsasV95702
p2475
(lp2476
(dp2477
Vinstructor
p2478
VMCCARTHY
p2479
sVid
p2480
V7429142
p2481
sVname
p2482
NsasV95710
p2483
(lp2484
(dp2485
Vinstructor
p2486
VZAMZOW
p2487
sVid
p2488
V7429139
p2489
sVname
p2490
NsasssV79
p2491
(dp2492
g6
VHISTORY
p2493
sg8
V8834
p2494
sg10
(dp2495
V79705
p2496
(lp2497
(dp2498
Vinstructor
p2499
NsVid
p2500
V7429072
p2501
sVname
p2502
NsasV79396
p2503
(lp2504
(dp2505
Vinstructor
p2506
NsVid
p2507
V7429069
p2508
sVname
p2509
NsasV79226
p2510
(lp2511
(dp2512
Vinstructor
p2513
NsVid
p2514
V7431302
p2515
sVname
p2516
NsasV79104
p2517
(lp2518
(dp2519
Vinstructor
p2520
VLAW
p2521
sVid
p2522
V7429180
p2523
sVname
p2524
V1
sasV79355
p2525
(lp2526
(dp2527
Vinstructor
p2528
NsVid
p2529
V7429059
p2530
sVname
p2531
NsasV79354
p2532
(lp2533
(dp2534
Vinstructor
p2535
NsVid
p2536
V7429222
p2537
sVname
p2538
NsasV79200
p2539
(lp2540
(dp2541
Vinstructor
p2542
VEISENBERG
p2543
sVid
p2544
V7428877
p2545
sVname
p2546
NsasV79218
p2547
(lp2548
(dp2549
Vinstructor
p2550
NsVid
p2551
V7429062
p2552
sVname
p2553
NsasV79376
p2554
(lp2555
(dp2556
Vinstructor
p2557
NsVid
p2558
V7431303
p2559
sVname
p2560
NsasV79230
p2561
(lp2562
(dp2563
Vinstructor
p2564
VEISENBERG
p2565
sVid
p2566
V7429154
p2567
sVname
p2568
NsasV79377
p2569
(lp2570
(dp2571
Vinstructor
p2572
NsVid
p2573
V7428879
p2574
sVname
p2575
NsasV79312
p2576
(lp2577
(dp2578
Vinstructor
p2579
NsVid
p2580
V7429058
p2581
sVname
p2582
VA
sasV79275
p2583
(lp2584
(dp2585
Vinstructor
p2586
NsVid
p2587
V7429060
p2588
sVname
p2589
NsasV79168
p2590
(lp2591
(dp2592
Vinstructor
p2593
NsVid
p2594
V7429070
p2595
sVname
p2596
NsasV79752
p2597
(lp2598
(dp2599
Vinstructor
p2600
NsVid
p2601
V7429061
p2602
sVname
p2603
NsasV79320
p2604
(lp2605
(dp2606
Vinstructor
p2607
NsVid
p2608
V7429191
p2609
sVname
p2610
NsasV79245
p2611
(lp2612
(dp2613
Vinstructor
p2614
VSANDAGE
p2615
sVid
p2616
V7429233
p2617
sVname
p2618
NsasV79288
p2619
(lp2620
(dp2621
Vinstructor
p2622
NsVid
p2623
V7428878
p2624
sVname
p2625
NsasV79328
p2626
(lp2627
(dp2628
Vinstructor
p2629
NsVid
p2630
V7429067
p2631
sVname
p2632
NsasV79711
p2633
(lp2634
(dp2635
Vinstructor
p2636
NsVid
p2637
V7429164
p2638
sVname
p2639
NsasV79281
p2640
(lp2641
(dp2642
Vinstructor
p2643
VRENCEWICZ
p2644
sVid
p2645
V7429152
p2646
sVname
p2647
NsasV79249
p2648
(lp2649
(dp2650
Vinstructor
p2651
NsVid
p2652
V7429066
p2653
sVname
p2654
NsasV79345
p2655
(lp2656
(dp2657
Vinstructor
p2658
VSANDAGE
p2659
sVid
p2660
V7429223
p2661
sVname
p2662
NsasV79178
p2663
(lp2664
(dp2665
Vinstructor
p2666
NsVid
p2667
V7429192
p2668
sVname
p2669
NsasV79341
p2670
(lp2671
(dp2672
Vinstructor
p2673
VKATS
p2674
sVid
p2675
V7428881
p2676
sVname
p2677
NsasV79239
p2678
(lp2679
(dp2680
Vinstructor
p2681
NsVid
p2682
V7429071
p2683
sVname
p2684
NsasV79375
p2685
(lp2686
(dp2687
Vinstructor
p2688
NsVid
p2689
V7429064
p2690
sVname
p2691
NsasV79262
p2692
(lp2693
(dp2694
Vinstructor
p2695
NsVid
p2696
V7429065
p2697
sVname
p2698
NsasV79360
p2699
(lp2700
(dp2701
Vinstructor
p2702
NsVid
p2703
V7428882
p2704
sVname
p2705
NsasV79266
p2706
(lp2707
(dp2708
Vinstructor
p2709
NsVid
p2710
V7429063
p2711
sVname
p2712
NsasssV11
p2713
(dp2714
g6
VLTI
p2715
sg8
V8794
p2716
sg10
(dp2717
V11411
p2718
(lp2719
(dp2720
Vinstructor
p2721
NsVid
p2722
V7428923
p2723
sVname
p2724
NsasV11661
p2725
(lp2726
(dp2727
Vinstructor
p2728
NsVid
p2729
V7428925
p2730
sVname
p2731
NsasV11741
p2732
(lp2733
(dp2734
Vinstructor
p2735
VYANG
p2736
sVid
p2737
V7428817
p2738
sVname
p2739
NsasV11731
p2740
(lp2741
(dp2742
Vinstructor
p2743
NsVid
p2744
V7428924
p2745
sVname
p2746
NsasV11611
p2747
g2719
sV11641/441
p2748
g2733
sV11761
p2749
g2726
sssV12
p2750
(dp2751
g6
VCIVIL ENG
p2752
sg8
V8795
p2753
sg10
(dp2754
V12351
p2755
(lp2756
(dp2757
Vinstructor
p2758
NsVid
p2759
V7428928
p2760
sVname
p2761
NsasV12686
p2762
(lp2763
(dp2764
Vinstructor
p2765
NsVid
p2766
V7428932
p2767
sVname
p2768
NsasV12742
p2769
(lp2770
(dp2771
Vinstructor
p2772
NsVid
p2773
V7428933
p2774
sVname
p2775
NsasV12631
p2776
(lp2777
(dp2778
Vinstructor
p2779
NsVid
p2780
V7428929
p2781
sVname
p2782
NsasV12231
p2783
(lp2784
(dp2785
Vinstructor
p2786
VDAYAL
p2787
sVid
p2788
V7428927
p2789
sVname
p2790
NsasV12729
p2791
(lp2792
(dp2793
Vinstructor
p2794
NsVid
p2795
V7428931
p2796
sVname
p2797
NsasV12728
p2798
(lp2799
(dp2800
Vinstructor
p2801
NsVid
p2802
V7428930
p2803
sVname
p2804
NsasV12781
p2805
(lp2806
(dp2807
Vinstructor
p2808
NsVid
p2809
V7428934
p2810
sVname
p2811
NsasV12629
p2812
g2792
sV12201
p2813
(lp2814
(dp2815
Vinstructor
p2816
NsVid
p2817
V7428926
p2818
sVname
p2819
NsasssV15
p2820
(dp2821
g6
VCOMP SCI
p2822
sg8
V8797
p2823
sg10
(dp2824
V15312
p2825
(lp2826
(dp2827
Vinstructor
p2828
VHARPER
p2829
sVid
p2830
V7428825
p2831
sVname
p2832
NsasV15221
p2833
(lp2834
(dp2835
Vinstructor
p2836
NsVid
p2837
V7428880
p2838
sVname
p2839
NsasV15453
p2840
(lp2841
(dp2842
Vinstructor
p2843
NsVid
p2844
V7428936
p2845
sVname
p2846
NsasV15322
p2847
(lp2848
(dp2849
Vinstructor
p2850
VDANNENBERG/STILES
p2851
sVid
p2852
V7428822
p2853
sVname
p2854
NsasV15121
p2855
(lp2856
(dp2857
Vinstructor
p2858
VCARRASQUEL
p2859
sVid
p2860
V7428826
p2861
sVname
p2862
NsasV15659
p2863
(lp2864
(dp2865
Vinstructor
p2866
NsVid
p2867
V7429224
p2868
sVname
p2869
NsasV15662
p2870
(lp2871
(dp2872
Vinstructor
p2873
VPOLLARD
p2874
sVid
p2875
V7428823
p2876
sVname
p2877
NsasV15462
p2878
g2871
sV15292
p2879
(lp2880
(dp2881
Vinstructor
p2882
VCORTINA
p2883
sVid
p2884
V7428937
p2885
sVname
p2886
NsasV15464
p2887
(lp2888
(dp2889
Vinstructor
p2890
VPOLLARD
p2891
sVid
p2892
V7428824
p2893
sVname
p2894
NsasV15359
p2895
g2864
sV15664
p2896
g2888
sssV14
p2897
(dp2898
g6
VINI
p2899
sg8
V8796
p2900
sg10
(dp2901
V14815
p2902
(lp2903
(dp2904
Vinstructor
p2905
VENGLER
p2906
sVid
p2907
V7428818
p2908
sVname
p2909
NsasV14453
p2910
(lp2911
(dp2912
Vinstructor
p2913
NsVid
p2914
V7428935
p2915
sVname
p2916
NsasV14735
p2917
(lp2918
(dp2919
Vinstructor
p2920
NsVid
p2921
V7428821
p2922
sVname
p2923
NsasssV17
p2924
(dp2925
g6
VSOFT ENG
p2926
sg8
V8799
p2927
sg10
(dp2928
V17639
p2929
(lp2930
(dp2931
Vinstructor
p2932
NsVid
p2933
V7428939
p2934
sVname
p2935
NsasV17603
p2936
(lp2937
(dp2938
Vinstructor
p2939
NsVid
p2940
V7428938
p2941
sVname
p2942
NsasssV16
p2943
(dp2944
g6
VROBOTIC
p2945
sg8
V8798
p2946
sg10
(dp2947
V16725
p2948
(lp2949
(dp2950
Vinstructor
p2951
NsVid
p2952
V7428941
p2953
sVname
p2954
NsasssV19
p2955
(dp2956
g6
VEPP
p2957
sg8
V8801
p2958
sg10
(dp2959
V19101
p2960
(lp2961
(dp2962
Vinstructor
p2963
VMATTHEWS
p2964
sVid
p2965
V7429218
p2966
sVname
p2967
NsasV19440
p2968
(lp2969
(dp2970
Vinstructor
p2971
VPRESTO
p2972
sVid
p2973
V7428887
p2974
sVname
p2975
NsasV19680
p2976
(lp2977
(dp2978
Vinstructor
p2979
NsVid
p2980
V7428869
p2981
sVname
p2982
NsasV19702
p2983
(lp2984
(dp2985
Vinstructor
p2986
VAZEVEDO
p2987
sVid
p2988
V7428832
p2989
sVname
p2990
NsasV19740
p2991
g2969
sV19689
p2992
(lp2993
(dp2994
Vinstructor
p2995
NsVid
p2996
V7429163
p2997
sVname
p2998
NsasssV54
p2999
(dp3000
g6
VDRAMA
p3001
sg8
V8820
p3002
sg10
(dp3003
V54790
p3004
(lp3005
(dp3006
Vinstructor
p3007
VHOLCOMB
p3008
sVid
p3009
V7429144
p3010
sVname
p3011
NsasV54468
p3012
(lp3013
(dp3014
Vinstructor
p3015
NsVid
p3016
V7429206
p3017
sVname
p3018
NsasV54334
p3019
(lp3020
(dp3021
Vinstructor
p3022
VHOLCOMB
p3023
sVid
p3024
V7429143
p3025
sVname
p3026
NsasV54775
p3027
g3013
sssV57
p3028
(dp3029
g6
VMUSIC
p3030
sg8
V8821
p3031
sg10
(dp3032
V57333
p3033
(lp3034
(dp3035
Vinstructor
p3036
VSTORY
p3037
sVid
p3038
V7429008
p3039
sVname
p3040
NsasV57780
p3041
(lp3042
(dp3043
Vinstructor
p3044
VKEELING
p3045
sVid
p3046
V7429207
p3047
sVname
p3048
NsasV57846
p3049
(lp3050
(dp3051
Vinstructor
p3052
NsVid
p3053
V7429145
p3054
sVname
p3055
NsasV57283
p3056
(lp3057
(dp3058
Vinstructor
p3059
NsVid
p3060
V7428845
p3061
sVname
p3062
NsasV57833
p3063
g3034
sssV51
p3064
(dp3065
g6
VDESIGN
p3066
sg8
V8818
p3067
sg10
(dp3068
V51312
p3069
(lp3070
(dp3071
Vinstructor
p3072
VCHUNG
p3073
sVid
p3074
V7428844
p3075
sVname
p3076
VA
sasssV88
p3077
(dp3078
g6
VSOC SCI
p3079
sg8
V8838
p3080
sg10
(dp3081
V88413
p3082
(lp3083
(dp3084
Vinstructor
p3085
VHOUNSHELL
p3086
sVid
p3087
V7429221
p3088
sVname
p3089
NsasV88124
p3090
(lp3091
(dp3092
Vinstructor
p3093
VBAUSCH
p3094
sVid
p3095
V7429232
p3096
sVname
p3097
NsasV88320
p3098
(lp3099
(dp3100
Vinstructor
p3101
NsVid
p3102
V7429130
p3103
sVname
p3104
NsasV88260
p3105
(lp3106
(dp3107
Vinstructor
p3108
VQUERBES
p3109
sVid
p3110
V7429196
p3111
sVname
p3112
NsasV88393
p3113
(lp3114
(dp3115
Vinstructor
p3116
VMCGOVERN
p3117
sVid
p3118
V7429171
p3119
sVname
p3120
NsasV88223
p3121
(lp3122
(dp3123
Vinstructor
p3124
VGOLLMAN, YU
p3125
sVid
p3126
V7429174
p3127
sVname
p3128
NsasV88118
p3129
(lp3130
(dp3131
Vinstructor
p3132
VZOLLMAN
p3133
sVid
p3134
V7429131
p3135
sVname
p3136
NsasV88384
p3137
(lp3138
(dp3139
Vinstructor
p3140
VPAULOS
p3141
sVid
p3142
V7429132
p3143
sVname
p3144
NsasV88367
p3145
(lp3146
(dp3147
Vinstructor
p3148
VBHARGAVA
p3149
sVid
p3150
V7429169
p3151
sVname
p3152
NsasV88205
p3153
(lp3154
(dp3155
Vinstructor
p3156
VCLARKE
p3157
sVid
p3158
V7429133
p3159
sVname
p3160
VA
sasV88337
p3161
(lp3162
(dp3163
Vinstructor
p3164
VDUNIGAN
p3165
sVid
p3166
V7429184
p3167
sVname
p3168
NsasV88667
p3169
g3146
sssV53
p3170
(dp3171
g6
VETC
p3172
sg8
V8819
p3173
sg10
(dp3174
V53831
p3175
(lp3176
(dp3177
Vinstructor
p3178
VKLUG
p3179
sVid
p3180
V7428873
p3181
sVname
p3182
NsasV53371
p3183
g3176
sV53872
p3184
(lp3185
(dp3186
Vinstructor
p3187
VKLUG, BERNSTEIN
p3188
sVid
p3189
V7428874
p3190
sVname
p3191
NsasV53471
p3192
(lp3193
(dp3194
Vinstructor
p3195
VCORBETT
p3196
sVid
p3197
V7429007
p3198
sVname
p3199
NsasssV33
p3200
(dp3201
g6
VPHYSICS
p3202
sg8
V8809
p3203
sg10
(dp3204
V33340
p3205
(lp3206
(dp3207
Vinstructor
p3208
NsVid
p3209
V7428998
p3210
sVname
p3211
NsasV33342
p3212
(lp3213
(dp3214
Vinstructor
p3215
VSWENDSEN
p3216
sVid
p3217
V7428899
p3218
sVname
p3219
NsasV33448
p3220
(lp3221
(dp3222
Vinstructor
p3223
VXIAO
p3224
sVid
p3225
V7428999
p3226
sVname
p3227
NsasV33111
p3228
(lp3229
(dp3230
Vinstructor
p3231
VGHOSH, WALKER
p3232
sVid
p3233
V7428991
p3234
sVname
p3235
NsasV33112
p3236
(lp3237
(dp3238
Vinstructor
p3239
VVOGEL, EVILEVITCH
p3240
sVid
p3241
V7428895
p3242
sVname
p3243
NsasV33114
p3244
(lp3245
(dp3246
Vinstructor
p3247
VBRIERE
p3248
sVid
p3249
V7428997
p3250
sVname
p3251
NsasV33132
p3252
(lp3253
(dp3254
Vinstructor
p3255
VSWENDSEN
p3256
sVid
p3257
V7428898
p3258
sVname
p3259
NsasV33762
p3260
(lp3261
(dp3262
Vinstructor
p3263
VRUSS
p3264
sVid
p3265
V7428989
p3266
sVname
p3267
NsasV33232
p3268
(lp3269
(dp3270
Vinstructor
p3271
VDIMATTEO
p3272
sVid
p3273
V7428993
p3274
sVname
p3275
NsasV33234
p3276
(lp3277
(dp3278
Vinstructor
p3279
VSUTER
p3280
sVid
p3281
V7428900
p3282
sVname
p3283
NsasV33767
p3284
(lp3285
(dp3286
Vinstructor
p3287
NsVid
p3288
V7428994
p3289
sVname
p3290
NsasV33765
p3291
(lp3292
(dp3293
Vinstructor
p3294
VDESERNO
p3295
sVid
p3296
V7428995
p3297
sVname
p3298
NsasV33339
p3299
(lp3300
(dp3301
Vinstructor
p3302
VMORNINGSTAR
p3303
sVid
p3304
V7428897
p3305
sVname
p3306
NsasV33211
p3307
(lp3308
(dp3309
Vinstructor
p3310
VQUINN
p3311
sVid
p3312
V7428990
p3313
sVname
p3314
NsasV33466
p3315
(lp3316
(dp3317
Vinstructor
p3318
VRYDEN
p3319
sVid
p3320
V7428892
p3321
sVname
p3322
NsasV33444
p3323
(lp3324
(dp3325
Vinstructor
p3326
VFRANKLIN
p3327
sVid
p3328
V7428896
p3329
sVname
p3330
NsasV33106
p3331
(lp3332
(dp3333
Vinstructor
p3334
VVOGEL, KLEIN
p3335
sVid
p3336
V7428894
p3337
sVname
p3338
NsasV33107
p3339
(lp3340
(dp3341
Vinstructor
p3342
VMAJETICH, KLEIN
p3343
sVid
p3344
V7428901
p3345
sVname
p3346
NsasV33120
p3347
(lp3348
(dp3349
Vinstructor
p3350
VLUOKKALA
p3351
sVid
p3352
V7428902
p3353
sVname
p3354
NsasV33771
p3355
(lp3356
(dp3357
Vinstructor
p3358
VCOLLINS
p3359
sVid
p3360
V7429177
p3361
sVname
p3362
NsasV33777
p3363
(lp3364
(dp3365
Vinstructor
p3366
NsVid
p3367
V7428996
p3368
sVname
p3369
NsasV33756
p3370
(lp3371
(dp3372
Vinstructor
p3373
VWIDOM
p3374
sVid
p3375
V7428893
p3376
sVname
p3377
NsasV33332
p3378
(lp3379
(dp3380
Vinstructor
p3381
VCROFT
p3382
sVid
p3383
V7428992
p3384
sVname
p3385
NsasssV18
p3386
(dp3387
g6
VECE
p3388
sg8
V8800
p3389
sg10
(dp3390
V18310
p3391
(lp3392
(dp3393
Vinstructor
p3394
NsVid
p3395
V7428945
p3396
sVname
p3397
NsasV18646
p3398
(lp3399
(dp3400
Vinstructor
p3401
NsVid
p3402
V7428955
p3403
sVname
p3404
VSV
p3405
sasV18645
p3406
(lp3407
(dp3408
Vinstructor
p3409
NsVid
p3410
V7428954
p3411
sVname
p3412
NsasV18641
p3413
(lp3414
(dp3415
Vinstructor
p3416
NsVid
p3417
V7428953
p3418
sVname
p3419
NsasV18601
p3420
(lp3421
(dp3422
Vinstructor
p3423
NsVid
p3424
V7428819
p3425
sVname
p3426
NsasV18799
p3427
(lp3428
(dp3429
Vinstructor
p3430
NsVid
p3431
V7429238
p3432
sVname
p3433
VK
sa(dp3434
Vinstructor
p3435
VMENGSHOEL
p3436
sVid
p3437
V7429239
p3438
sVname
p3439
VM,S
p3440
sasV18637
p3441
(lp3442
(dp3443
Vinstructor
p3444
NsVid
p3445
V7428952
p3446
sVname
p3447
NsasV18790
p3448
(lp3449
(dp3450
Vinstructor
p3451
NsVid
p3452
V7428963
p3453
sVname
p3454
NsasV18791
p3455
(lp3456
(dp3457
Vinstructor
p3458
NsVid
p3459
V7428940
p3460
sVname
p3461
NsasV18698
p3462
(lp3463
(dp3464
Vinstructor
p3465
NsVid
p3466
V7428959
p3467
sVname
p3468
NsasV18652
p3469
(lp3470
(dp3471
Vinstructor
p3472
NsVid
p3473
V7428956
p3474
sVname
p3475
VT,A
p3476
sasV18798
p3477
(lp3478
(dp3479
Vinstructor
p3480
VCAI
p3481
sVid
p3482
V7428827
p3483
sVname
p3484
NsasV18752
p3485
(lp3486
(dp3487
Vinstructor
p3488
NsVid
p3489
V7428961
p3490
sVname
p3491
NsasV18422
p3492
(lp3493
(dp3494
Vinstructor
p3495
NsVid
p3496
V7428949
p3497
sVname
p3498
NsasV18240
p3499
(lp3500
(dp3501
Vinstructor
p3502
VNACE
p3503
sVid
p3504
V7428829
p3505
sVname
p3506
NsasV18421
p3507
(lp3508
(dp3509
Vinstructor
p3510
NsVid
p3511
V7428948
p3512
sVname
p3513
NsasV18220
p3514
(lp3515
(dp3516
Vinstructor
p3517
VPILEGGI
p3518
sVid
p3519
V7428831
p3520
sVname
p3521
NsasV18402
p3522
(lp3523
(dp3524
Vinstructor
p3525
NsVid
p3526
V7428947
p3527
sVname
p3528
NsasV18817
p3529
(lp3530
(dp3531
Vinstructor
p3532
VTOWE, ELIAS
p3533
sVid
p3534
V7429240
p3535
sVname
p3536
NsasV18482
p3537
(lp3538
(dp3539
Vinstructor
p3540
NsVid
p3541
V7428950
p3542
sVname
p3543
NsasV18779
p3544
(lp3545
(dp3546
Vinstructor
p3547
NsVid
p3548
V7428962
p3549
sVname
p3550
VT
sasV18653
p3551
(lp3552
(dp3553
Vinstructor
p3554
NsVid
p3555
V7428957
p3556
sVname
p3557
VSV
p3558
sasV18731
p3559
(lp3560
(dp3561
Vinstructor
p3562
NsVid
p3563
V7428960
p3564
sVname
p3565
VA
sasV18202
p3566
(lp3567
(dp3568
Vinstructor
p3569
NsVid
p3570
V7428944
p3571
sVname
p3572
NsasV18615
p3573
(lp3574
(dp3575
Vinstructor
p3576
NsVid
p3577
V7428951
p3578
sVname
p3579
NsasV18340
p3580
(lp3581
(dp3582
Vinstructor
p3583
NsVid
p3584
V7428946
p3585
sVname
p3586
VA
sasV18100
p3587
(lp3588
(dp3589
Vinstructor
p3590
VSULLIVAN
p3591
sVid
p3592
V7428943
p3593
sVname
p3594
NsasV18690
p3595
(lp3596
(dp3597
Vinstructor
p3598
VMOYA
p3599
sVid
p3600
V7428828
p3601
sVname
p3602
NsasV18687
p3603
(lp3604
(dp3605
Vinstructor
p3606
NsVid
p3607
V7428958
p3608
sVname
p3609
VA,
p3610
sasV18842
p3611
(lp3612
(dp3613
Vinstructor
p3614
VNACE
p3615
sVid
p3616
V7428830
p3617
sVname
p3618
NsasV18847
p3619
(lp3620
(dp3621
Vinstructor
p3622
NsVid
p3623
V7429241
p3624
sVname
p3625
VC
sassssS'term'
p3626
I6668
s.